; Function Attrs: mustprogress uwtable
define noundef nonnull align 8 dereferenceable(8) ptr @_ZN8QuantLib4DatemIERKNS_6PeriodE(ptr noundef nonnull returned align 8 dereferenceable(8) %this, ptr nocapture noundef nonnull readonly align 4 dereferenceable(8) %p) local_unnamed_addr #4 align 2 {
entry:
  %0 = load i32, ptr %p, align 4, !tbaa !29
  %sub = sub nsw i32 0, %0
  %units_.i = getelementptr inbounds nuw i8, ptr %p, i64 4
  %1 = load i32, ptr %units_.i, align 4, !tbaa !32
  %call3 = tail call i64 @_ZN8QuantLib4Date7advanceERKS0_iNS_8TimeUnitE(ptr noundef nonnull align 8 dereferenceable(8) %this, i32 noundef %sub, i32 noundef %1)
  store i64 %call3, ptr %this, align 8, !tbaa !3
  ret ptr %this
}